target datalayout = "e-m:e-p270:32:32-p271:32:32-p272:64:64-i64:64-i128:128-f80:128-n8:16:32:64-S128"
target triple = "x86_64-pc-linux-gnu"

%struct.slurm_ops_t = type { ptr, ptr, ptr, ptr, ptr, ptr, ptr, ptr, ptr, ptr, ptr, ptr, ptr, ptr, ptr, ptr, ptr, ptr, ptr, ptr, ptr, ptr, ptr }

@plugin_inited = internal global i32 0, align 4
@ops = internal global %struct.slurm_ops_t zeroinitializer, align 8

; Function Attrs: nounwind uwtable
define dso_local i32 @cgroup_g_step_suspend() #0 {
  %1 = alloca i32, align 4
  %2 = load i32, ptr @plugin_inited, align 4
  %3 = icmp eq i32 %2, 1
  br i1 %3, label %4, label %5

4:                                                ; preds = %0
  store i32 0, ptr %1, align 4
  br label %8

5:                                                ; preds = %0
  %6 = load ptr, ptr getelementptr inbounds nuw (%struct.slurm_ops_t, ptr @ops, i32 0, i32 7), align 8
  %7 = call i32 %6()
  store i32 %7, ptr %1, align 4
  br label %8

8:                                                ; preds = %5, %4
  %9 = load i32, ptr %1, align 4
  ret i32 %9
}